SF:/home/nicolas/src/safetensors/safetensors/src/lib.rs
FN:1,_RNvCsbMiFGjRZ20J_11safetensors4main
FNDA:1,_RNvCsbMiFGjRZ20J_11safetensors4main
FNF:1
FNH:1
DA:1,1
BRF:0
BRH:0
LF:1
LH:1
end_of_record
SF:/home/nicolas/src/safetensors/safetensors/src/slice.rs
FN:46,_RNvXs7_NtCsbMiFGjRZ20J_11safetensors5sliceNtB5_13TensorIndexerINtNtCsjNFi0zNHray_4core7convert4FromINtNtNtB13_3ops5range5RangejEE4from
FN:46,_RNvXsa_NtCsbMiFGjRZ20J_11safetensors5sliceNtB5_13TensorIndexerINtNtCsjNFi0zNHray_4core7convert4FromINtNtNtB13_3ops5range14RangeInclusivejEE4from
FN:95,_RNvXININtCsbMiFGjRZ20J_11safetensors5slices_0pENtNtB7_6tensor10TensorViewINtB5_7IndexOpTpEE5sliceB7_
FN:14,_RNvXs5_NtCsbMiFGjRZ20J_11safetensors5sliceNtB5_13TensorIndexerNtNtCsjNFi0zNHray_4core3fmt5Debug3fmt
FN:46,_RNvXsc_NtCsbMiFGjRZ20J_11safetensors5sliceNtB5_13TensorIndexerINtNtCsjNFi0zNHray_4core7convert4FromINtNtNtB13_3ops5range16RangeToInclusivejEE4from
FN:46,_RNvXs8_NtCsbMiFGjRZ20J_11safetensors5sliceNtB5_13TensorIndexerINtNtCsjNFi0zNHray_4core7convert4FromINtNtNtB13_3ops5range9RangeFromjEE4from
FN:14,_RNvXs6_NtCsbMiFGjRZ20J_11safetensors5sliceNtB5_13TensorIndexerNtNtCsjNFi0zNHray_4core5clone5Clone5clone
FN:86,_RNvXININtCsbMiFGjRZ20J_11safetensors5slice0pENtNtB7_6tensor10TensorViewINtB5_7IndexOppE5sliceB7_
FN:411,_RNCNvNtNtCsbMiFGjRZ20J_11safetensors5slice5tests18test_slice_variety0B7_
FN:468,_RNCNvNtNtCsbMiFGjRZ20J_11safetensors5slice5tests19test_slice_variety20B7_
FN:319,_RNCNvNtNtCsbMiFGjRZ20J_11safetensors5slice5tests12test_helpers0B7_
FN:348,_RNCNvNtNtCsbMiFGjRZ20J_11safetensors5slice5tests10test_dummy0B7_
FN:415,_RNCNvNtNtCsbMiFGjRZ20J_11safetensors5slice5testss_18test_slice_variety0B7_
FN:472,_RNCNvNtNtCsbMiFGjRZ20J_11safetensors5slice5testss_19test_slice_variety20B7_
FN:323,_RNCNvNtNtCsbMiFGjRZ20J_11safetensors5slice5testss_12test_helpers0B7_
FN:292,_RNCNvMs2_NtCsbMiFGjRZ20J_11safetensors5sliceNtB7_13SliceIterator18remaining_byte_len0B9_
FN:352,_RNCNvNtNtCsbMiFGjRZ20J_11safetensors5slice5testss_10test_dummy0B7_
FN:305,_RNvXs3_NtCsbMiFGjRZ20J_11safetensors5sliceNtB5_13SliceIteratorNtNtNtNtCsjNFi0zNHray_4core4iter6traits8iterator8Iterator4next
FN:8,_RNvXs4_NtCsbMiFGjRZ20J_11safetensors5sliceNtB5_12InvalidSliceNtNtCsjNFi0zNHray_4core3fmt5Debug3fmt
FN:289,_RNvMs2_NtCsbMiFGjRZ20J_11safetensors5sliceNtB5_13SliceIterator18remaining_byte_len
FN:297,_RNvMs2_NtCsbMiFGjRZ20J_11safetensors5sliceNtB5_13SliceIterator8newshape
FN:46,_RNvXs9_NtCsbMiFGjRZ20J_11safetensors5sliceNtB5_13TensorIndexerINtNtCsjNFi0zNHray_4core7convert4FromNtNtNtB13_3ops5range9RangeFullE4from
FN:46,_RNvXsb_NtCsbMiFGjRZ20J_11safetensors5sliceNtB5_13TensorIndexerINtNtCsjNFi0zNHray_4core7convert4FromINtNtNtB13_3ops5range7RangeTojEE4from
FN:212,_RNvMs2_NtCsbMiFGjRZ20J_11safetensors5sliceNtB5_13SliceIterator3new
FN:106,_RNvXs0_NtCsbMiFGjRZ20J_11safetensors5sliceNtNtB7_6tensor10TensorViewINtB5_7IndexOpTNtNtNtCsjNFi0zNHray_4core3ops5range9RangeFullINtB1l_7RangeTojEEE5sliceB7_
FN:119,_RNvXs1_NtCsbMiFGjRZ20J_11safetensors5sliceNtNtB7_6tensor10TensorViewINtB5_7IndexOpTNtNtNtCsjNFi0zNHray_4core3ops5range9RangeFullB1j_INtB1l_7RangeTojEEE5sliceB7_
FN:412,_RNvNtNtCsbMiFGjRZ20J_11safetensors5slice5testss_18test_slice_variety
FN:320,_RNvNtNtCsbMiFGjRZ20J_11safetensors5slice5testss_12test_helpers
FN:349,_RNvNtNtCsbMiFGjRZ20J_11safetensors5slice5testss_10test_dummy
FN:469,_RNvNtNtCsbMiFGjRZ20J_11safetensors5slice5testss_19test_slice_variety2
FNDA:0,_RNvXs7_NtCsbMiFGjRZ20J_11safetensors5sliceNtB5_13TensorIndexerINtNtCsjNFi0zNHray_4core7convert4FromINtNtNtB13_3ops5range5RangejEE4from
FNDA:0,_RNvXsa_NtCsbMiFGjRZ20J_11safetensors5sliceNtB5_13TensorIndexerINtNtCsjNFi0zNHray_4core7convert4FromINtNtNtB13_3ops5range14RangeInclusivejEE4from
FNDA:0,_RNvXININtCsbMiFGjRZ20J_11safetensors5slices_0pENtNtB7_6tensor10TensorViewINtB5_7IndexOpTpEE5sliceB7_
FNDA:0,_RNvXs5_NtCsbMiFGjRZ20J_11safetensors5sliceNtB5_13TensorIndexerNtNtCsjNFi0zNHray_4core3fmt5Debug3fmt
FNDA:0,_RNvXsc_NtCsbMiFGjRZ20J_11safetensors5sliceNtB5_13TensorIndexerINtNtCsjNFi0zNHray_4core7convert4FromINtNtNtB13_3ops5range16RangeToInclusivejEE4from
FNDA:0,_RNvXs8_NtCsbMiFGjRZ20J_11safetensors5sliceNtB5_13TensorIndexerINtNtCsjNFi0zNHray_4core7convert4FromINtNtNtB13_3ops5range9RangeFromjEE4from
FNDA:0,_RNvXs6_NtCsbMiFGjRZ20J_11safetensors5sliceNtB5_13TensorIndexerNtNtCsjNFi0zNHray_4core5clone5Clone5clone
FNDA:0,_RNvXININtCsbMiFGjRZ20J_11safetensors5slice0pENtNtB7_6tensor10TensorViewINtB5_7IndexOppE5sliceB7_
FNDA:1,_RNCNvNtNtCsbMiFGjRZ20J_11safetensors5slice5tests18test_slice_variety0B7_
FNDA:1,_RNCNvNtNtCsbMiFGjRZ20J_11safetensors5slice5tests19test_slice_variety20B7_
FNDA:1,_RNCNvNtNtCsbMiFGjRZ20J_11safetensors5slice5tests12test_helpers0B7_
FNDA:1,_RNCNvNtNtCsbMiFGjRZ20J_11safetensors5slice5tests10test_dummy0B7_
FNDA:6,_RNCNvNtNtCsbMiFGjRZ20J_11safetensors5slice5testss_18test_slice_variety0B7_
FNDA:6,_RNCNvNtNtCsbMiFGjRZ20J_11safetensors5slice5testss_19test_slice_variety20B7_
FNDA:6,_RNCNvNtNtCsbMiFGjRZ20J_11safetensors5slice5testss_12test_helpers0B7_
FNDA:2,_RNCNvMs2_NtCsbMiFGjRZ20J_11safetensors5sliceNtB7_13SliceIterator18remaining_byte_len0B9_
FNDA:6,_RNCNvNtNtCsbMiFGjRZ20J_11safetensors5slice5testss_10test_dummy0B7_
FNDA:25,_RNvXs3_NtCsbMiFGjRZ20J_11safetensors5sliceNtB5_13SliceIteratorNtNtNtNtCsjNFi0zNHray_4core4iter6traits8iterator8Iterator4next
FNDA:0,_RNvXs4_NtCsbMiFGjRZ20J_11safetensors5sliceNtB5_12InvalidSliceNtNtCsjNFi0zNHray_4core3fmt5Debug3fmt
FNDA:2,_RNvMs2_NtCsbMiFGjRZ20J_11safetensors5sliceNtB5_13SliceIterator18remaining_byte_len
FNDA:2,_RNvMs2_NtCsbMiFGjRZ20J_11safetensors5sliceNtB5_13SliceIterator8newshape
FNDA:3,_RNvXs9_NtCsbMiFGjRZ20J_11safetensors5sliceNtB5_13TensorIndexerINtNtCsjNFi0zNHray_4core7convert4FromNtNtNtB13_3ops5range9RangeFullE4from
FNDA:2,_RNvXsb_NtCsbMiFGjRZ20J_11safetensors5sliceNtB5_13TensorIndexerINtNtCsjNFi0zNHray_4core7convert4FromINtNtNtB13_3ops5range7RangeTojEE4from
FNDA:14,_RNvMs2_NtCsbMiFGjRZ20J_11safetensors5sliceNtB5_13SliceIterator3new
FNDA:1,_RNvXs0_NtCsbMiFGjRZ20J_11safetensors5sliceNtNtB7_6tensor10TensorViewINtB5_7IndexOpTNtNtNtCsjNFi0zNHray_4core3ops5range9RangeFullINtB1l_7RangeTojEEE5sliceB7_
FNDA:1,_RNvXs1_NtCsbMiFGjRZ20J_11safetensors5sliceNtNtB7_6tensor10TensorViewINtB5_7IndexOpTNtNtNtCsjNFi0zNHray_4core3ops5range9RangeFullB1j_INtB1l_7RangeTojEEE5sliceB7_
FNDA:1,_RNvNtNtCsbMiFGjRZ20J_11safetensors5slice5testss_18test_slice_variety
FNDA:1,_RNvNtNtCsbMiFGjRZ20J_11safetensors5slice5testss_12test_helpers
FNDA:1,_RNvNtNtCsbMiFGjRZ20J_11safetensors5slice5testss_10test_dummy
FNDA:1,_RNvNtNtCsbMiFGjRZ20J_11safetensors5slice5testss_19test_slice_variety2
FNF:25
FNH:20
DA:8,0
DA:14,0
DA:46,5
DA:49,5
DA:50,0
DA:51,0
DA:52,5
DA:55,5
DA:56,0
DA:57,2
DA:58,3
DA:61,5
DA:62,5
DA:86,0
DA:87,0
DA:88,0
DA:95,0
DA:96,0
DA:97,0
DA:98,0
DA:106,1
DA:107,1
DA:108,1
DA:109,1
DA:110,1
DA:119,1
DA:120,1
DA:121,1
DA:122,1
DA:123,1
DA:124,1
DA:212,14
DA:213,14
DA:214,14
DA:215,14
DA:216,14
DA:217,14
DA:218,14
DA:219,14
DA:220,1
DA:221,13
DA:222,13
DA:223,13
DA:224,13
DA:225,13
DA:226,13
DA:228,38
DA:229,38
DA:230,11
DA:231,11
DA:232,11
DA:233,27
DA:234,27
DA:235,18
DA:236,2
DA:237,0
DA:238,0
DA:240,0
DA:241,7
DA:242,0
DA:243,0
DA:245,0
DA:246,0
DA:247,0
DA:249,0
DA:250,0
DA:253,27
DA:254,27
DA:255,17
DA:256,10
DA:257,10
DA:258,7
DA:259,7
DA:260,7
DA:261,7
DA:263,10
DA:264,13
DA:265,13
DA:266,28
DA:267,15
DA:268,15
DA:270,10
DA:273,38
DA:275,13
DA:276,6
DA:277,7
DA:279,13
DA:280,13
DA:281,13
DA:282,13
DA:283,13
DA:284,13
DA:285,13
DA:286,14
DA:289,2
DA:290,2
DA:291,2
DA:292,2
DA:293,2
DA:294,2
DA:297,2
DA:298,2
DA:299,2
DA:305,25
DA:309,25
DA:310,14
DA:311,25
DA:319,1
DA:320,1
DA:321,1
DA:322,1
DA:323,6
DA:324,1
DA:325,1
DA:326,1
DA:327,1
DA:328,1
DA:329,1
DA:330,1
DA:331,1
DA:332,1
DA:333,1
DA:334,1
DA:336,1
DA:337,1
DA:338,1
DA:339,1
DA:340,1
DA:341,1
DA:342,1
DA:343,1
DA:344,1
DA:345,1
DA:346,1
DA:348,1
DA:349,1
DA:350,1
DA:351,1
DA:352,6
DA:353,1
DA:354,1
DA:355,1
DA:356,1
DA:357,1
DA:358,1
DA:359,1
DA:360,1
DA:361,1
DA:362,1
DA:363,1
DA:365,1
DA:366,1
DA:367,1
DA:368,1
DA:369,1
DA:370,1
DA:371,1
DA:372,1
DA:373,1
DA:374,1
DA:376,1
DA:377,1
DA:378,1
DA:379,1
DA:380,1
DA:381,1
DA:382,1
DA:383,1
DA:384,1
DA:385,1
DA:387,1
DA:388,1
DA:389,1
DA:390,1
DA:391,1
DA:392,1
DA:393,1
DA:394,1
DA:395,1
DA:396,1
DA:397,1
DA:399,1
DA:400,1
DA:401,1
DA:402,1
DA:403,1
DA:404,1
DA:405,1
DA:406,1
DA:407,1
DA:408,1
DA:409,1
DA:411,1
DA:412,1
DA:413,1
DA:414,1
DA:415,6
DA:416,1
DA:417,1
DA:418,1
DA:419,1
DA:420,1
DA:421,1
DA:422,1
DA:423,1
DA:424,1
DA:425,1
DA:426,1
DA:427,1
DA:428,1
DA:429,1
DA:431,1
DA:432,1
DA:433,1
DA:434,1
DA:435,1
DA:436,1
DA:437,1
DA:438,1
DA:439,1
DA:440,1
DA:442,1
DA:443,1
DA:444,1
DA:445,1
DA:446,1
DA:447,1
DA:448,1
DA:449,1
DA:450,1
DA:451,1
DA:452,1
DA:453,1
DA:455,1
DA:456,1
DA:457,1
DA:458,1
DA:459,1
DA:460,1
DA:461,1
DA:462,1
DA:463,1
DA:464,1
DA:465,1
DA:466,1
DA:468,1
DA:469,1
DA:470,1
DA:471,1
DA:472,6
DA:473,1
DA:474,1
DA:475,1
DA:476,1
DA:477,1
DA:478,1
DA:479,1
DA:480,1
DA:481,1
DA:482,1
DA:483,1
DA:484,1
DA:485,1
DA:486,1
DA:487,1
DA:488,1
BRF:0
BRH:0
LF:272
LH:248
end_of_record
SF:/home/nicolas/src/safetensors/safetensors/src/tensor.rs
FN:376,_RINvXNvXNvNtCsbMiFGjRZ20J_11safetensors6tensors_1__NtB8_12HashMetadataNtNtCs9b6qOt1j1yB_5serde2de11Deserialize11deserializeNtB3_14___FieldVisitorNtB18_7Visitor9visit_i64pEBa_
FN:568,_RNvXsl_NtCsbMiFGjRZ20J_11safetensors6tensorNtB5_5DtypeNtNtCsjNFi0zNHray_4core3cmp10PartialOrd11partial_cmp
FN:376,_RNvXNvXNvNtCsbMiFGjRZ20J_11safetensors6tensors_1__NtB7_12HashMetadataNtNtCs9b6qOt1j1yB_5serde2de11Deserialize11deserializeNtB2_14___FieldVisitorNtB17_7Visitor9expecting
FN:226,_RINvNtCsbMiFGjRZ20J_11safetensors6tensor17serialize_to_filepppEB4_
FN:557,_RNvXsb_NtCsbMiFGjRZ20J_11safetensors6tensorNtB5_10TensorInfoNtNtCsjNFi0zNHray_4core3fmt5Debug3fmt
FN:568,_RNvXse_NtCsbMiFGjRZ20J_11safetensors6tensorNtB5_5DtypeNtNtCsjNFi0zNHray_4core5clone5Clone5clone
FN:376,_RINvXNvXNvNtCsbMiFGjRZ20J_11safetensors6tensors_1__NtB8_12HashMetadataNtNtCs9b6qOt1j1yB_5serde2de11Deserialize11deserializeNtB3_14___FieldVisitorNtB18_7Visitor9visit_i16pEBa_
FN:376,_RINvXNvXNvNtCsbMiFGjRZ20J_11safetensors6tensors_1__NtB8_12HashMetadataNtNtCs9b6qOt1j1yB_5serde2de11Deserialize11deserializeNtB3_14___FieldVisitorNtB18_7Visitor8visit_i8pEBa_
FN:490,_RNvXsa_NtCsbMiFGjRZ20J_11safetensors6tensorNtB5_10TensorViewNtNtCsjNFi0zNHray_4core3fmt5Debug3fmt
FN:376,_RINvXNvXNvNtCsbMiFGjRZ20J_11safetensors6tensors_1__NtB8_12HashMetadataNtNtCs9b6qOt1j1yB_5serde2de11Deserialize11deserializeNtB3_14___FieldVisitorNtB18_7Visitor20visit_borrowed_bytespEBa_
FN:39,_RNvXNtCsbMiFGjRZ20J_11safetensors6tensorNtB2_15SafeTensorErrorINtNtCsjNFi0zNHray_4core7convert4FromNtNtNtCs4BkLiNc2WPT_3std2io5error5ErrorE4from
FN:477,_RNCNvMs4_NtCsbMiFGjRZ20J_11safetensors6tensorNtB7_8Metadata7tensors0B9_
FN:376,_RINvXNvXNvNtCsbMiFGjRZ20J_11safetensors6tensors_1__NtB8_12HashMetadataNtNtCs9b6qOt1j1yB_5serde2de11Deserialize11deserializeNtB3_14___FieldVisitorNtB18_7Visitor8visit_u8pEBa_
FN:376,_RINvXNvXNvNtCsbMiFGjRZ20J_11safetensors6tensors_1__NtB8_12HashMetadataNtNtCs9b6qOt1j1yB_5serde2de11Deserialize11deserializeNtB3_14___FieldVisitorNtB18_7Visitor9visit_u16pEBa_
FN:376,_RINvXNvXNvNtCsbMiFGjRZ20J_11safetensors6tensors_1__NtB8_12HashMetadataNtNtCs9b6qOt1j1yB_5serde2de11Deserialize11deserializeNtB3_14___FieldVisitorNtB18_7Visitor9visit_i32pEBa_
FN:376,_RINvXNvXNvNtCsbMiFGjRZ20J_11safetensors6tensors_1__NtB8_12HashMetadataNtNtCs9b6qOt1j1yB_5serde2de11Deserialize11deserializeNtB3_14___FieldVisitorNtB18_7Visitor11visit_bytespEBa_
FN:376,_RINvXNvXNvNtCsbMiFGjRZ20J_11safetensors6tensors_1__NtB8_12HashMetadataNtNtCs9b6qOt1j1yB_5serde2de11Deserialize11deserializeNtB3_14___FieldVisitorNtB18_7Visitor10visit_unitpEBa_
FN:482,_RNvMs4_NtCsbMiFGjRZ20J_11safetensors6tensorNtB5_8Metadata8metadata
FN:368,_RNvXs9_NtCsbMiFGjRZ20J_11safetensors6tensorNtB5_8MetadataNtNtCsjNFi0zNHray_4core3fmt5Debug3fmt
FN:376,_RINvXNvXNvNtCsbMiFGjRZ20J_11safetensors6tensors_1__NtB8_12HashMetadataNtNtCs9b6qOt1j1yB_5serde2de11Deserialize11deserializeNtB3_14___FieldVisitorNtB18_7Visitor9visit_f64pEBa_
FN:376,_RINvXNvXNvNtCsbMiFGjRZ20J_11safetensors6tensors_1__NtB8_12HashMetadataNtNtCs9b6qOt1j1yB_5serde2de11Deserialize11deserializeNtB3_14___FieldVisitorNtB18_7Visitor9visit_f32pEBa_
FN:376,_RINvXNvXNvNtCsbMiFGjRZ20J_11safetensors6tensors_1__NtB8_12HashMetadataNtNtCs9b6qOt1j1yB_5serde2de11Deserialize11deserializeNtB3_14___FieldVisitorNtB18_7Visitor10visit_charpEBa_
FN:376,_RINvXNvXNvNtCsbMiFGjRZ20J_11safetensors6tensors_1__NtB8_12HashMetadataNtNtCs9b6qOt1j1yB_5serde2de11Deserialize11deserializeNtB3_14___FieldVisitorNtB18_7Visitor10visit_boolpEBa_
FN:376,_RINvXNvXNvNtCsbMiFGjRZ20J_11safetensors6tensors_1__NtB8_12HashMetadataNtNtCs9b6qOt1j1yB_5serde2de11Deserialize11deserializeNtB3_14___FieldVisitorNtB18_7Visitor9visit_u64pEBa_
FN:376,_RINvXNvXNvNtCsbMiFGjRZ20J_11safetensors6tensors_1__NtB8_12HashMetadataNtNtCs9b6qOt1j1yB_5serde2de11Deserialize11deserializeNtB3_14___FieldVisitorNtB18_7Visitor9visit_u32pEBa_
FN:557,_RNvXsc_NtCsbMiFGjRZ20J_11safetensors6tensorNtB5_10TensorInfoNtNtCsjNFi0zNHray_4core5clone5Clone5clone
FN:325,_RNvMs1_NtCsbMiFGjRZ20J_11safetensors6tensorNtB5_11SafeTensors7tensors
FN:568,_RNvXs0_NvXNvNtCsbMiFGjRZ20J_11safetensors6tensors2_1__NtBa_5DtypeNtNtCs9b6qOt1j1yB_5serde2de11Deserialize11deserializeNtB5_9___VisitorNtB13_7Visitor9expecting
FN:474,_RNvMs4_NtCsbMiFGjRZ20J_11safetensors6tensorNtB5_8Metadata7tensors
FN:625,_RNCNvNtNtCsbMiFGjRZ20J_11safetensors6tensor5tests18test_serialization0B7_
FN:678,_RNCNvNtNtCsbMiFGjRZ20J_11safetensors6tensor5tests12test_slicing0B7_
FN:727,_RNCNvNtNtCsbMiFGjRZ20J_11safetensors6tensor5tests9test_gpt20B7_
FN:787,_RNCNvNtNtCsbMiFGjRZ20J_11safetensors6tensor5tests20test_deserialization0B7_
FN:801,_RNCNvNtNtCsbMiFGjRZ20J_11safetensors6tensor5tests16test_json_attack0B7_
FN:650,_RNCNvNtNtCsbMiFGjRZ20J_11safetensors6tensor5tests36test_serialization_forced_alignement0B7_
FN:732,_RNCNvNtNtCsbMiFGjRZ20J_11safetensors6tensor5tests14test_gpt2_tiny0B7_
FN:844,_RNCNvNtNtCsbMiFGjRZ20J_11safetensors6tensor5tests21test_header_too_large0B7_
FN:557,_RINvXs_NvXNvNtCsbMiFGjRZ20J_11safetensors6tensors0_1__NtBa_10TensorInfoNtNtCs9b6qOt1j1yB_5serde2de11Deserialize11deserializeNtB5_7___FieldB17_11deserializeINtNtNtNtB1b_9___private2de7content22ContentRefDeserializerNtNtCscGBJi1LTqr2_10serde_json5error5ErrorEEBc_
FN:654,_RNCNvNtNtCsbMiFGjRZ20J_11safetensors6tensor5testss_36test_serialization_forced_alignement0B7_
FN:629,_RNCNvNtNtCsbMiFGjRZ20J_11safetensors6tensor5testss_18test_serialization0B7_
FN:707,_RNCNvNtNtCsbMiFGjRZ20J_11safetensors6tensor5testss_12test_slicings1_0B7_
FN:434,_RNCNvMs4_NtCsbMiFGjRZ20J_11safetensors6tensorNtB7_8Metadata3new0B9_
FN:762,_RNCNvNtNtCsbMiFGjRZ20J_11safetensors6tensor5tests9gpt2_like0B7_
FN:682,_RNCNvNtNtCsbMiFGjRZ20J_11safetensors6tensor5testss_12test_slicing0B7_
FN:722,_RNCNvNtNtCsbMiFGjRZ20J_11safetensors6tensor5testss_12test_slicings2_0B7_
FN:568,_RINvXNvNtCsbMiFGjRZ20J_11safetensors6tensors2_1__NtB5_5DtypeNtNtCs9b6qOt1j1yB_5serde2de11Deserialize11deserializeINtNtNtNtB10_9___private2de7content22ContentRefDeserializerNtNtCscGBJi1LTqr2_10serde_json5error5ErrorEEB7_
FN:536,_RNvMs6_NtCsbMiFGjRZ20J_11safetensors6tensorNtB5_10TensorView5shape
FN:343,_RNvMs1_NtCsbMiFGjRZ20J_11safetensors6tensorNtB5_11SafeTensors6tensor
FN:506,_RNvXs5_NtCsbMiFGjRZ20J_11safetensors6tensorRNtB5_10TensorViewNtB5_4View4data
FN:568,_RINvXNvXNvNtCsbMiFGjRZ20J_11safetensors6tensors2_1__NtB8_5DtypeNtNtCs9b6qOt1j1yB_5serde2de11Deserialize11deserializeNtB3_14___FieldVisitorNtB11_7Visitor11visit_bytesNtNtCscGBJi1LTqr2_10serde_json5error5ErrorEBa_
FN:288,_RNCNvMs1_NtCsbMiFGjRZ20J_11safetensors6tensorNtB7_11SafeTensors13read_metadatas_0B9_
FN:557,_RNvXs0_NvXNvNtCsbMiFGjRZ20J_11safetensors6tensors0_1__NtBa_10TensorInfoNtNtCs9b6qOt1j1yB_5serde2de11Deserialize11deserializeNtB5_9___VisitorNtB19_7Visitor9expecting
FN:403,_RINvXs3_NtCsbMiFGjRZ20J_11safetensors6tensorNtB6_8MetadataNtNtCs9b6qOt1j1yB_5serde3ser9Serialize9serializeQINtNtCscGBJi1LTqr2_10serde_json3ser10SerializerQINtNtCsbOmesTKH6XS_5alloc3vec3VechEEEB8_
FN:14,_RNvXs8_NtCsbMiFGjRZ20J_11safetensors6tensorNtB5_15SafeTensorErrorNtNtCsjNFi0zNHray_4core3fmt5Debug3fmt
FN:376,_RINvXNvNtCsbMiFGjRZ20J_11safetensors6tensor1__NtB5_12HashMetadataNtNtCs9b6qOt1j1yB_5serde3ser9Serialize9serializeQINtNtCscGBJi1LTqr2_10serde_json3ser10SerializerQINtNtCsbOmesTKH6XS_5alloc3vec3VechEEEB7_
FN:568,_RINvXNvXNvNtCsbMiFGjRZ20J_11safetensors6tensors2_1__NtB8_5DtypeNtNtCs9b6qOt1j1yB_5serde2de11Deserialize11deserializeNtB3_14___FieldVisitorNtB11_7Visitor9visit_u64NtNtCscGBJi1LTqr2_10serde_json5error5ErrorEBa_
FN:531,_RNvMs6_NtCsbMiFGjRZ20J_11safetensors6tensorNtB5_10TensorView5dtype
FN:601,_RNvMs7_NtCsbMiFGjRZ20J_11safetensors6tensorNtB5_5Dtype4size
FN:197,_RINvNtCsbMiFGjRZ20J_11safetensors6tensor9serializeRNtNtCsbOmesTKH6XS_5alloc6string6StringRNtB2_10TensorViewRINtNtNtNtCs4BkLiNc2WPT_3std11collections4hash3map7HashMapBN_B1q_EEB4_
FN:557,_RINvXNvXNvNtCsbMiFGjRZ20J_11safetensors6tensors0_1__NtB8_10TensorInfoNtNtCs9b6qOt1j1yB_5serde2de11Deserialize11deserializeNtB3_14___FieldVisitorNtB17_7Visitor9visit_strNtNtCscGBJi1LTqr2_10serde_json5error5ErrorEBa_
FN:313,_RNvMs1_NtCsbMiFGjRZ20J_11safetensors6tensorNtB5_11SafeTensors11deserialize
FN:557,_RINvXNvXNvNtCsbMiFGjRZ20J_11safetensors6tensors0_1__NtB8_10TensorInfoNtNtCs9b6qOt1j1yB_5serde2de11Deserialize11deserializeNtB3_14___FieldVisitorNtB17_7Visitor11visit_bytesNtNtCscGBJi1LTqr2_10serde_json5error5ErrorEBa_
FN:502,_RNvXs5_NtCsbMiFGjRZ20J_11safetensors6tensorRNtB5_10TensorViewNtB5_4View5shape
FN:425,_RNvMs4_NtCsbMiFGjRZ20J_11safetensors6tensorNtB5_8Metadata3new
FN:568,_RINvXNvNtCsbMiFGjRZ20J_11safetensors6tensors2_1__NtB5_5DtypeNtNtCs9b6qOt1j1yB_5serde2de11Deserialize11deserializeINtNvNtNtB10_9___private2de13missing_field24MissingFieldDeserializerNtNtCscGBJi1LTqr2_10serde_json5error5ErrorEEB7_
FN:568,_RINvXNvNtCsbMiFGjRZ20J_11safetensors6tensors3_1__NtB5_5DtypeNtNtCs9b6qOt1j1yB_5serde3ser9Serialize9serializeQINtNtCscGBJi1LTqr2_10serde_json3ser10SerializerQINtNtCsbOmesTKH6XS_5alloc3vec3VechEEEB7_
FN:376,_RNvXs0_NvXNvNtCsbMiFGjRZ20J_11safetensors6tensors_1__NtBa_12HashMetadataNtNtCs9b6qOt1j1yB_5serde2de11Deserialize11deserializeNtB5_9___VisitorNtB1a_7Visitor9expecting
FN:557,_RNvXNvXNvNtCsbMiFGjRZ20J_11safetensors6tensors0_1__NtB7_10TensorInfoNtNtCs9b6qOt1j1yB_5serde2de11Deserialize11deserializeNtB2_14___FieldVisitorNtB16_7Visitor9expecting
FN:546,_RNvMs6_NtCsbMiFGjRZ20J_11safetensors6tensorNtB5_10TensorView11sliced_data
FN:386,_RINvXs2_NtCsbMiFGjRZ20J_11safetensors6tensorNtB6_8MetadataNtNtCs9b6qOt1j1yB_5serde2de11Deserialize11deserializeQINtNtCscGBJi1LTqr2_10serde_json2de12DeserializerNtNtB1R_4read7StrReadEEB8_
FN:261,_RNvMs1_NtCsbMiFGjRZ20J_11safetensors6tensorNtB5_11SafeTensors13read_metadata
FN:150,_RINvNtCsbMiFGjRZ20J_11safetensors6tensor7prepareRNtNtCsbOmesTKH6XS_5alloc6string6StringRNtB2_10TensorViewRINtNtNtNtCs4BkLiNc2WPT_3std11collections4hash3map7HashMapBL_B1o_EEB4_
FN:290,_RNCNvMs1_NtCsbMiFGjRZ20J_11safetensors6tensorNtB7_11SafeTensors13read_metadatas0_0B9_
FN:376,_RINvXNvXNvNtCsbMiFGjRZ20J_11safetensors6tensors_1__NtB8_12HashMetadataNtNtCs9b6qOt1j1yB_5serde2de11Deserialize11deserializeNtB3_14___FieldVisitorNtB18_7Visitor18visit_borrowed_strNtNtCscGBJi1LTqr2_10serde_json5error5ErrorEBa_
FN:498,_RNvXs5_NtCsbMiFGjRZ20J_11safetensors6tensorRNtB5_10TensorViewNtB5_4View5dtype
FN:376,_RINvXNvXNvNtCsbMiFGjRZ20J_11safetensors6tensors_1__NtB8_12HashMetadataNtNtCs9b6qOt1j1yB_5serde2de11Deserialize11deserializeNtB3_14___FieldVisitorNtB18_7Visitor9visit_strNtNtCscGBJi1LTqr2_10serde_json5error5ErrorEBa_
FN:568,_RINvXNvXNvNtCsbMiFGjRZ20J_11safetensors6tensors2_1__NtB8_5DtypeNtNtCs9b6qOt1j1yB_5serde2de11Deserialize11deserializeNtB3_14___FieldVisitorNtB11_7Visitor9visit_strNtNtCscGBJi1LTqr2_10serde_json5error5ErrorEBa_
FN:568,_RINvXs0_NvXNvNtCsbMiFGjRZ20J_11safetensors6tensors2_1__NtBb_5DtypeNtNtCs9b6qOt1j1yB_5serde2de11Deserialize11deserializeNtB6_9___VisitorNtB14_7Visitor10visit_enumINtNtNtNtB16_9___private2de7content19EnumRefDeserializerNtNtCscGBJi1LTqr2_10serde_json5error5ErrorEEBd_
FN:541,_RNvMs6_NtCsbMiFGjRZ20J_11safetensors6tensorNtB5_10TensorView4data
FN:517,_RNvMs6_NtCsbMiFGjRZ20J_11safetensors6tensorNtB5_10TensorView3new
FN:557,_RINvXNvNtCsbMiFGjRZ20J_11safetensors6tensors1_1__NtB5_10TensorInfoNtNtCs9b6qOt1j1yB_5serde3ser9Serialize9serializeQINtNtCscGBJi1LTqr2_10serde_json3ser10SerializerQINtNtCsbOmesTKH6XS_5alloc3vec3VechEEEB7_
FN:568,_RNvXNvXNvNtCsbMiFGjRZ20J_11safetensors6tensors2_1__NtB7_5DtypeNtNtCs9b6qOt1j1yB_5serde2de11Deserialize11deserializeNtB2_14___FieldVisitorNtB10_7Visitor9expecting
FN:557,_RINvXNvXNvNtCsbMiFGjRZ20J_11safetensors6tensors0_1__NtB8_10TensorInfoNtNtCs9b6qOt1j1yB_5serde2de11Deserialize11deserializeNtB3_14___FieldVisitorNtB17_7Visitor9visit_u64NtNtCscGBJi1LTqr2_10serde_json5error5ErrorEBa_
FN:276,_RNCNvMs1_NtCsbMiFGjRZ20J_11safetensors6tensorNtB7_11SafeTensors13read_metadata0B9_
FN:45,_RNvXs_NtCsbMiFGjRZ20J_11safetensors6tensorNtB4_15SafeTensorErrorNtNtCsjNFi0zNHray_4core3fmt7Display3fmt
FN:568,_RNvXsd_NtCsbMiFGjRZ20J_11safetensors6tensorNtB5_5DtypeNtNtCsjNFi0zNHray_4core3fmt5Debug3fmt
FN:510,_RNvXs5_NtCsbMiFGjRZ20J_11safetensors6tensorRNtB5_10TensorViewNtB5_4View8data_len
FN:361,_RNvMs1_NtCsbMiFGjRZ20J_11safetensors6tensorNtB5_11SafeTensors5names
FN:449,_RNvMs4_NtCsbMiFGjRZ20J_11safetensors6tensorNtB5_8Metadata8validate
FN:457,_RNCNvMs4_NtCsbMiFGjRZ20J_11safetensors6tensorNtB7_8Metadata8validate0B9_
FN:376,_RINvXNvNtCsbMiFGjRZ20J_11safetensors6tensors_1__NtB5_12HashMetadataNtNtCs9b6qOt1j1yB_5serde2de11Deserialize11deserializeQINtNtCscGBJi1LTqr2_10serde_json2de12DeserializerNtNtB20_4read7StrReadEEB7_
FN:557,_RINvXNvNtCsbMiFGjRZ20J_11safetensors6tensors0_1__NtB5_10TensorInfoNtNtCs9b6qOt1j1yB_5serde2de11Deserialize11deserializeINtNtNtNtB16_9___private2de7content22ContentRefDeserializerNtNtCscGBJi1LTqr2_10serde_json5error5ErrorEEB7_
FN:376,_RINvXs_NvXNvNtCsbMiFGjRZ20J_11safetensors6tensors_1__NtBa_12HashMetadataNtNtCs9b6qOt1j1yB_5serde2de11Deserialize11deserializeNtB5_7___FieldB18_11deserializeINtNtCscGBJi1LTqr2_10serde_json2de6MapKeyNtNtB2z_4read7StrReadEEBc_
FN:376,_RINvXs0_NvXNvNtCsbMiFGjRZ20J_11safetensors6tensors_1__NtBb_12HashMetadataNtNtCs9b6qOt1j1yB_5serde2de11Deserialize11deserializeNtB6_9___VisitorNtB1b_7Visitor9visit_mapINtNtCscGBJi1LTqr2_10serde_json2de9MapAccessNtNtB2J_4read7StrReadEEBd_
FN:802,_RNvNtNtCsbMiFGjRZ20J_11safetensors6tensor5testss_16test_json_attack
FN:737,_RNvNtNtCsbMiFGjRZ20J_11safetensors6tensor5tests9gpt2_like
FN:715,_RNCNvNtNtCsbMiFGjRZ20J_11safetensors6tensor5testss_12test_slicings0_0B7_
FN:626,_RNvNtNtCsbMiFGjRZ20J_11safetensors6tensor5testss_18test_serialization
FN:700,_RNCNvNtNtCsbMiFGjRZ20J_11safetensors6tensor5testss_12test_slicings_0B7_
FN:568,_RNvXsh_NtCsbMiFGjRZ20J_11safetensors6tensorNtB5_5DtypeNtNtCsjNFi0zNHray_4core3cmp9PartialEq2eq
FN:733,_RNvNtNtCsbMiFGjRZ20J_11safetensors6tensor5testss_14test_gpt2_tiny
FN:845,_RNvNtNtCsbMiFGjRZ20J_11safetensors6tensor5testss_21test_header_too_large
FN:679,_RNvNtNtCsbMiFGjRZ20J_11safetensors6tensor5testss_12test_slicing
FN:788,_RNvNtNtCsbMiFGjRZ20J_11safetensors6tensor5testss_20test_deserialization
FN:651,_RNvNtNtCsbMiFGjRZ20J_11safetensors6tensor5testss_36test_serialization_forced_alignement
FN:728,_RNvNtNtCsbMiFGjRZ20J_11safetensors6tensor5testss_9test_gpt2
FN:158,_RNCINvNtCsbMiFGjRZ20J_11safetensors6tensor7prepareRNtNtCsbOmesTKH6XS_5alloc6string6StringRNtB4_10TensorViewRINtNtNtNtCs4BkLiNc2WPT_3std11collections4hash3map7HashMapBN_B1q_EE0B6_
FN:397,_RNCINvXs2_NtCsbMiFGjRZ20J_11safetensors6tensorNtB8_8MetadataNtNtCs9b6qOt1j1yB_5serde2de11Deserialize11deserializeQINtNtCscGBJi1LTqr2_10serde_json2de12DeserializerNtNtB1T_4read7StrReadEE0Ba_
FN:568,_RNvXsk_NtCsbMiFGjRZ20J_11safetensors6tensorNtB5_5DtypeNtNtCsjNFi0zNHray_4core3cmp3Ord3cmp
FN:557,_RINvXs0_NvXNvNtCsbMiFGjRZ20J_11safetensors6tensors0_1__NtBb_10TensorInfoNtNtCs9b6qOt1j1yB_5serde2de11Deserialize11deserializeNtB6_9___VisitorNtB1a_7Visitor9visit_seqQINtNtB1a_5value15SeqDeserializerINtNtNtNtCsjNFi0zNHray_4core4iter8adapters3map3MapINtNtNtB3j_5slice4iter4IterNtNtNtNtB1c_9___private2de7content7ContentENvMsq_B4r_INtB4r_22ContentRefDeserializerNtNtCscGBJi1LTqr2_10serde_json5error5ErrorE3newEB5L_EEBd_
FN:557,_RINvXs0_NvXNvNtCsbMiFGjRZ20J_11safetensors6tensors0_1__NtBb_10TensorInfoNtNtCs9b6qOt1j1yB_5serde2de11Deserialize11deserializeNtB6_9___VisitorNtB1a_7Visitor9visit_mapQINtNtB1a_5value15MapDeserializerINtNtNtNtCsjNFi0zNHray_4core4iter8adapters3map3MapINtNtNtB3j_5slice4iter4IterTNtNtNtNtB1c_9___private2de7content7ContentB4q_EENCINvB4s_21visit_content_map_refB1Z_NtNtCscGBJi1LTqr2_10serde_json5error5ErrorE0EB5M_EEBd_
FN:568,_RINvXs_NvXNvNtCsbMiFGjRZ20J_11safetensors6tensors2_1__NtBa_5DtypeNtNtCs9b6qOt1j1yB_5serde2de11Deserialize11deserializeNtB5_7___FieldB11_11deserializeINtNtNtNtB15_9___private2de7content22ContentRefDeserializerNtNtCscGBJi1LTqr2_10serde_json5error5ErrorEEBc_
FNDA:0,_RINvXNvXNvNtCsbMiFGjRZ20J_11safetensors6tensors_1__NtB8_12HashMetadataNtNtCs9b6qOt1j1yB_5serde2de11Deserialize11deserializeNtB3_14___FieldVisitorNtB18_7Visitor9visit_i64pEBa_
FNDA:0,_RNvXsl_NtCsbMiFGjRZ20J_11safetensors6tensorNtB5_5DtypeNtNtCsjNFi0zNHray_4core3cmp10PartialOrd11partial_cmp
FNDA:0,_RNvXNvXNvNtCsbMiFGjRZ20J_11safetensors6tensors_1__NtB7_12HashMetadataNtNtCs9b6qOt1j1yB_5serde2de11Deserialize11deserializeNtB2_14___FieldVisitorNtB17_7Visitor9expecting
FNDA:0,_RINvNtCsbMiFGjRZ20J_11safetensors6tensor17serialize_to_filepppEB4_
FNDA:0,_RNvXsb_NtCsbMiFGjRZ20J_11safetensors6tensorNtB5_10TensorInfoNtNtCsjNFi0zNHray_4core3fmt5Debug3fmt
FNDA:0,_RNvXse_NtCsbMiFGjRZ20J_11safetensors6tensorNtB5_5DtypeNtNtCsjNFi0zNHray_4core5clone5Clone5clone
FNDA:0,_RINvXNvXNvNtCsbMiFGjRZ20J_11safetensors6tensors_1__NtB8_12HashMetadataNtNtCs9b6qOt1j1yB_5serde2de11Deserialize11deserializeNtB3_14___FieldVisitorNtB18_7Visitor9visit_i16pEBa_
FNDA:0,_RINvXNvXNvNtCsbMiFGjRZ20J_11safetensors6tensors_1__NtB8_12HashMetadataNtNtCs9b6qOt1j1yB_5serde2de11Deserialize11deserializeNtB3_14___FieldVisitorNtB18_7Visitor8visit_i8pEBa_
FNDA:0,_RNvXsa_NtCsbMiFGjRZ20J_11safetensors6tensorNtB5_10TensorViewNtNtCsjNFi0zNHray_4core3fmt5Debug3fmt
FNDA:0,_RINvXNvXNvNtCsbMiFGjRZ20J_11safetensors6tensors_1__NtB8_12HashMetadataNtNtCs9b6qOt1j1yB_5serde2de11Deserialize11deserializeNtB3_14___FieldVisitorNtB18_7Visitor20visit_borrowed_bytespEBa_
FNDA:0,_RNvXNtCsbMiFGjRZ20J_11safetensors6tensorNtB2_15SafeTensorErrorINtNtCsjNFi0zNHray_4core7convert4FromNtNtNtCs4BkLiNc2WPT_3std2io5error5ErrorE4from
FNDA:0,_RNCNvMs4_NtCsbMiFGjRZ20J_11safetensors6tensorNtB7_8Metadata7tensors0B9_
FNDA:0,_RINvXNvXNvNtCsbMiFGjRZ20J_11safetensors6tensors_1__NtB8_12HashMetadataNtNtCs9b6qOt1j1yB_5serde2de11Deserialize11deserializeNtB3_14___FieldVisitorNtB18_7Visitor8visit_u8pEBa_
FNDA:0,_RINvXNvXNvNtCsbMiFGjRZ20J_11safetensors6tensors_1__NtB8_12HashMetadataNtNtCs9b6qOt1j1yB_5serde2de11Deserialize11deserializeNtB3_14___FieldVisitorNtB18_7Visitor9visit_u16pEBa_
FNDA:0,_RINvXNvXNvNtCsbMiFGjRZ20J_11safetensors6tensors_1__NtB8_12HashMetadataNtNtCs9b6qOt1j1yB_5serde2de11Deserialize11deserializeNtB3_14___FieldVisitorNtB18_7Visitor9visit_i32pEBa_
FNDA:0,_RINvXNvXNvNtCsbMiFGjRZ20J_11safetensors6tensors_1__NtB8_12HashMetadataNtNtCs9b6qOt1j1yB_5serde2de11Deserialize11deserializeNtB3_14___FieldVisitorNtB18_7Visitor11visit_bytespEBa_
FNDA:0,_RINvXNvXNvNtCsbMiFGjRZ20J_11safetensors6tensors_1__NtB8_12HashMetadataNtNtCs9b6qOt1j1yB_5serde2de11Deserialize11deserializeNtB3_14___FieldVisitorNtB18_7Visitor10visit_unitpEBa_
FNDA:0,_RNvMs4_NtCsbMiFGjRZ20J_11safetensors6tensorNtB5_8Metadata8metadata
FNDA:0,_RNvXs9_NtCsbMiFGjRZ20J_11safetensors6tensorNtB5_8MetadataNtNtCsjNFi0zNHray_4core3fmt5Debug3fmt
FNDA:0,_RINvXNvXNvNtCsbMiFGjRZ20J_11safetensors6tensors_1__NtB8_12HashMetadataNtNtCs9b6qOt1j1yB_5serde2de11Deserialize11deserializeNtB3_14___FieldVisitorNtB18_7Visitor9visit_f64pEBa_
FNDA:0,_RINvXNvXNvNtCsbMiFGjRZ20J_11safetensors6tensors_1__NtB8_12HashMetadataNtNtCs9b6qOt1j1yB_5serde2de11Deserialize11deserializeNtB3_14___FieldVisitorNtB18_7Visitor9visit_f32pEBa_
FNDA:0,_RINvXNvXNvNtCsbMiFGjRZ20J_11safetensors6tensors_1__NtB8_12HashMetadataNtNtCs9b6qOt1j1yB_5serde2de11Deserialize11deserializeNtB3_14___FieldVisitorNtB18_7Visitor10visit_charpEBa_
FNDA:0,_RINvXNvXNvNtCsbMiFGjRZ20J_11safetensors6tensors_1__NtB8_12HashMetadataNtNtCs9b6qOt1j1yB_5serde2de11Deserialize11deserializeNtB3_14___FieldVisitorNtB18_7Visitor10visit_boolpEBa_
FNDA:0,_RINvXNvXNvNtCsbMiFGjRZ20J_11safetensors6tensors_1__NtB8_12HashMetadataNtNtCs9b6qOt1j1yB_5serde2de11Deserialize11deserializeNtB3_14___FieldVisitorNtB18_7Visitor9visit_u64pEBa_
FNDA:0,_RINvXNvXNvNtCsbMiFGjRZ20J_11safetensors6tensors_1__NtB8_12HashMetadataNtNtCs9b6qOt1j1yB_5serde2de11Deserialize11deserializeNtB3_14___FieldVisitorNtB18_7Visitor9visit_u32pEBa_
FNDA:0,_RNvXsc_NtCsbMiFGjRZ20J_11safetensors6tensorNtB5_10TensorInfoNtNtCsjNFi0zNHray_4core5clone5Clone5clone
FNDA:0,_RNvMs1_NtCsbMiFGjRZ20J_11safetensors6tensorNtB5_11SafeTensors7tensors
FNDA:0,_RNvXs0_NvXNvNtCsbMiFGjRZ20J_11safetensors6tensors2_1__NtBa_5DtypeNtNtCs9b6qOt1j1yB_5serde2de11Deserialize11deserializeNtB5_9___VisitorNtB13_7Visitor9expecting
FNDA:0,_RNvMs4_NtCsbMiFGjRZ20J_11safetensors6tensorNtB5_8Metadata7tensors
FNDA:1,_RNCNvNtNtCsbMiFGjRZ20J_11safetensors6tensor5tests18test_serialization0B7_
FNDA:1,_RNCNvNtNtCsbMiFGjRZ20J_11safetensors6tensor5tests12test_slicing0B7_
FNDA:1,_RNCNvNtNtCsbMiFGjRZ20J_11safetensors6tensor5tests9test_gpt20B7_
FNDA:1,_RNCNvNtNtCsbMiFGjRZ20J_11safetensors6tensor5tests20test_deserialization0B7_
FNDA:1,_RNCNvNtNtCsbMiFGjRZ20J_11safetensors6tensor5tests16test_json_attack0B7_
FNDA:1,_RNCNvNtNtCsbMiFGjRZ20J_11safetensors6tensor5tests36test_serialization_forced_alignement0B7_
FNDA:1,_RNCNvNtNtCsbMiFGjRZ20J_11safetensors6tensor5tests14test_gpt2_tiny0B7_
FNDA:1,_RNCNvNtNtCsbMiFGjRZ20J_11safetensors6tensor5tests21test_header_too_large0B7_
FNDA:768,_RINvXs_NvXNvNtCsbMiFGjRZ20J_11safetensors6tensors0_1__NtBa_10TensorInfoNtNtCs9b6qOt1j1yB_5serde2de11Deserialize11deserializeNtB5_7___FieldB17_11deserializeINtNtNtNtB1b_9___private2de7content22ContentRefDeserializerNtNtCscGBJi1LTqr2_10serde_json5error5ErrorEEBc_
FNDA:6,_RNCNvNtNtCsbMiFGjRZ20J_11safetensors6tensor5testss_36test_serialization_forced_alignement0B7_
FNDA:6,_RNCNvNtNtCsbMiFGjRZ20J_11safetensors6tensor5testss_18test_serialization0B7_
FNDA:3,_RNCNvNtNtCsbMiFGjRZ20J_11safetensors6tensor5testss_12test_slicings1_0B7_
FNDA:501,_RNCNvMs4_NtCsbMiFGjRZ20J_11safetensors6tensorNtB7_8Metadata3new0B9_
FNDA:242,_RNCNvNtNtCsbMiFGjRZ20J_11safetensors6tensor5tests9gpt2_like0B7_
FNDA:6,_RNCNvNtNtCsbMiFGjRZ20J_11safetensors6tensor5testss_12test_slicing0B7_
FNDA:2,_RNCNvNtNtCsbMiFGjRZ20J_11safetensors6tensor5testss_12test_slicings2_0B7_
FNDA:256,_RINvXNvNtCsbMiFGjRZ20J_11safetensors6tensors2_1__NtB5_5DtypeNtNtCs9b6qOt1j1yB_5serde2de11Deserialize11deserializeINtNtNtNtB10_9___private2de7content22ContentRefDeserializerNtNtCscGBJi1LTqr2_10serde_json5error5ErrorEEB7_
FNDA:41,_RNvMs6_NtCsbMiFGjRZ20J_11safetensors6tensorNtB5_10TensorView5shape
FNDA:3,_RNvMs1_NtCsbMiFGjRZ20J_11safetensors6tensorNtB5_11SafeTensors6tensor
FNDA:245,_RNvXs5_NtCsbMiFGjRZ20J_11safetensors6tensorRNtB5_10TensorViewNtB5_4View4data
FNDA:0,_RINvXNvXNvNtCsbMiFGjRZ20J_11safetensors6tensors2_1__NtB8_5DtypeNtNtCs9b6qOt1j1yB_5serde2de11Deserialize11deserializeNtB3_14___FieldVisitorNtB11_7Visitor11visit_bytesNtNtCscGBJi1LTqr2_10serde_json5error5ErrorEBa_
FNDA:0,_RNCNvMs1_NtCsbMiFGjRZ20J_11safetensors6tensorNtB7_11SafeTensors13read_metadatas_0B9_
FNDA:0,_RNvXs0_NvXNvNtCsbMiFGjRZ20J_11safetensors6tensors0_1__NtBa_10TensorInfoNtNtCs9b6qOt1j1yB_5serde2de11Deserialize11deserializeNtB5_9___VisitorNtB19_7Visitor9expecting
FNDA:5,_RINvXs3_NtCsbMiFGjRZ20J_11safetensors6tensorNtB6_8MetadataNtNtCs9b6qOt1j1yB_5serde3ser9Serialize9serializeQINtNtCscGBJi1LTqr2_10serde_json3ser10SerializerQINtNtCsbOmesTKH6XS_5alloc3vec3VechEEEB8_
FNDA:0,_RNvXs8_NtCsbMiFGjRZ20J_11safetensors6tensorNtB5_15SafeTensorErrorNtNtCsjNFi0zNHray_4core3fmt5Debug3fmt
FNDA:1,_RINvXNvNtCsbMiFGjRZ20J_11safetensors6tensor1__NtB5_12HashMetadataNtNtCs9b6qOt1j1yB_5serde3ser9Serialize9serializeQINtNtCscGBJi1LTqr2_10serde_json3ser10SerializerQINtNtCsbOmesTKH6XS_5alloc3vec3VechEEEB7_
FNDA:0,_RINvXNvXNvNtCsbMiFGjRZ20J_11safetensors6tensors2_1__NtB8_5DtypeNtNtCs9b6qOt1j1yB_5serde2de11Deserialize11deserializeNtB3_14___FieldVisitorNtB11_7Visitor9visit_u64NtNtCscGBJi1LTqr2_10serde_json5error5ErrorEBa_
FNDA:14,_RNvMs6_NtCsbMiFGjRZ20J_11safetensors6tensorNtB5_10TensorView5dtype
FNDA:752,_RNvMs7_NtCsbMiFGjRZ20J_11safetensors6tensorNtB5_5Dtype4size
FNDA:5,_RINvNtCsbMiFGjRZ20J_11safetensors6tensor9serializeRNtNtCsbOmesTKH6XS_5alloc6string6StringRNtB2_10TensorViewRINtNtNtNtCs4BkLiNc2WPT_3std11collections4hash3map7HashMapBN_B1q_EEB4_
FNDA:768,_RINvXNvXNvNtCsbMiFGjRZ20J_11safetensors6tensors0_1__NtB8_10TensorInfoNtNtCs9b6qOt1j1yB_5serde2de11Deserialize11deserializeNtB3_14___FieldVisitorNtB17_7Visitor9visit_strNtNtCscGBJi1LTqr2_10serde_json5error5ErrorEBa_
FNDA:8,_RNvMs1_NtCsbMiFGjRZ20J_11safetensors6tensorNtB5_11SafeTensors11deserialize
FNDA:0,_RINvXNvXNvNtCsbMiFGjRZ20J_11safetensors6tensors0_1__NtB8_10TensorInfoNtNtCs9b6qOt1j1yB_5serde2de11Deserialize11deserializeNtB3_14___FieldVisitorNtB17_7Visitor11visit_bytesNtNtCscGBJi1LTqr2_10serde_json5error5ErrorEBa_
FNDA:245,_RNvXs5_NtCsbMiFGjRZ20J_11safetensors6tensorRNtB5_10TensorViewNtB5_4View5shape
FNDA:12,_RNvMs4_NtCsbMiFGjRZ20J_11safetensors6tensorNtB5_8Metadata3new
FNDA:0,_RINvXNvNtCsbMiFGjRZ20J_11safetensors6tensors2_1__NtB5_5DtypeNtNtCs9b6qOt1j1yB_5serde2de11Deserialize11deserializeINtNvNtNtB10_9___private2de13missing_field24MissingFieldDeserializerNtNtCscGBJi1LTqr2_10serde_json5error5ErrorEEB7_
FNDA:255,_RINvXNvNtCsbMiFGjRZ20J_11safetensors6tensors3_1__NtB5_5DtypeNtNtCs9b6qOt1j1yB_5serde3ser9Serialize9serializeQINtNtCscGBJi1LTqr2_10serde_json3ser10SerializerQINtNtCsbOmesTKH6XS_5alloc3vec3VechEEEB7_
FNDA:0,_RNvXs0_NvXNvNtCsbMiFGjRZ20J_11safetensors6tensors_1__NtBa_12HashMetadataNtNtCs9b6qOt1j1yB_5serde2de11Deserialize11deserializeNtB5_9___VisitorNtB1a_7Visitor9expecting
FNDA:0,_RNvXNvXNvNtCsbMiFGjRZ20J_11safetensors6tensors0_1__NtB7_10TensorInfoNtNtCs9b6qOt1j1yB_5serde2de11Deserialize11deserializeNtB2_14___FieldVisitorNtB16_7Visitor9expecting
FNDA:2,_RNvMs6_NtCsbMiFGjRZ20J_11safetensors6tensorNtB5_10TensorView11sliced_data
FNDA:7,_RINvXs2_NtCsbMiFGjRZ20J_11safetensors6tensorNtB6_8MetadataNtNtCs9b6qOt1j1yB_5serde2de11Deserialize11deserializeQINtNtCscGBJi1LTqr2_10serde_json2de12DeserializerNtNtB1R_4read7StrReadEEB8_
FNDA:8,_RNvMs1_NtCsbMiFGjRZ20J_11safetensors6tensorNtB5_11SafeTensors13read_metadata
FNDA:5,_RINvNtCsbMiFGjRZ20J_11safetensors6tensor7prepareRNtNtCsbOmesTKH6XS_5alloc6string6StringRNtB2_10TensorViewRINtNtNtNtCs4BkLiNc2WPT_3std11collections4hash3map7HashMapBL_B1o_EEB4_
FNDA:0,_RNCNvMs1_NtCsbMiFGjRZ20J_11safetensors6tensorNtB7_11SafeTensors13read_metadatas0_0B9_
FNDA:256,_RINvXNvXNvNtCsbMiFGjRZ20J_11safetensors6tensors_1__NtB8_12HashMetadataNtNtCs9b6qOt1j1yB_5serde2de11Deserialize11deserializeNtB3_14___FieldVisitorNtB18_7Visitor18visit_borrowed_strNtNtCscGBJi1LTqr2_10serde_json5error5ErrorEBa_
FNDA:3513,_RNvXs5_NtCsbMiFGjRZ20J_11safetensors6tensorRNtB5_10TensorViewNtB5_4View5dtype
FNDA:0,_RINvXNvXNvNtCsbMiFGjRZ20J_11safetensors6tensors_1__NtB8_12HashMetadataNtNtCs9b6qOt1j1yB_5serde2de11Deserialize11deserializeNtB3_14___FieldVisitorNtB18_7Visitor9visit_strNtNtCscGBJi1LTqr2_10serde_json5error5ErrorEBa_
FNDA:256,_RINvXNvXNvNtCsbMiFGjRZ20J_11safetensors6tensors2_1__NtB8_5DtypeNtNtCs9b6qOt1j1yB_5serde2de11Deserialize11deserializeNtB3_14___FieldVisitorNtB11_7Visitor9visit_strNtNtCscGBJi1LTqr2_10serde_json5error5ErrorEBa_
FNDA:256,_RINvXs0_NvXNvNtCsbMiFGjRZ20J_11safetensors6tensors2_1__NtBb_5DtypeNtNtCs9b6qOt1j1yB_5serde2de11Deserialize11deserializeNtB6_9___VisitorNtB14_7Visitor10visit_enumINtNtNtNtB16_9___private2de7content19EnumRefDeserializerNtNtCscGBJi1LTqr2_10serde_json5error5ErrorEEBd_
FNDA:21,_RNvMs6_NtCsbMiFGjRZ20J_11safetensors6tensorNtB5_10TensorView4data
FNDA:248,_RNvMs6_NtCsbMiFGjRZ20J_11safetensors6tensorNtB5_10TensorView3new
FNDA:255,_RINvXNvNtCsbMiFGjRZ20J_11safetensors6tensors1_1__NtB5_10TensorInfoNtNtCs9b6qOt1j1yB_5serde3ser9Serialize9serializeQINtNtCscGBJi1LTqr2_10serde_json3ser10SerializerQINtNtCsbOmesTKH6XS_5alloc3vec3VechEEEB7_
FNDA:0,_RNvXNvXNvNtCsbMiFGjRZ20J_11safetensors6tensors2_1__NtB7_5DtypeNtNtCs9b6qOt1j1yB_5serde2de11Deserialize11deserializeNtB2_14___FieldVisitorNtB10_7Visitor9expecting
FNDA:0,_RINvXNvXNvNtCsbMiFGjRZ20J_11safetensors6tensors0_1__NtB8_10TensorInfoNtNtCs9b6qOt1j1yB_5serde2de11Deserialize11deserializeNtB3_14___FieldVisitorNtB17_7Visitor9visit_u64NtNtCscGBJi1LTqr2_10serde_json5error5ErrorEBa_
FNDA:0,_RNCNvMs1_NtCsbMiFGjRZ20J_11safetensors6tensorNtB7_11SafeTensors13read_metadata0B9_
FNDA:0,_RNvXs_NtCsbMiFGjRZ20J_11safetensors6tensorNtB4_15SafeTensorErrorNtNtCsjNFi0zNHray_4core3fmt7Display3fmt
FNDA:0,_RNvXsd_NtCsbMiFGjRZ20J_11safetensors6tensorNtB5_5DtypeNtNtCsjNFi0zNHray_4core3fmt5Debug3fmt
FNDA:245,_RNvXs5_NtCsbMiFGjRZ20J_11safetensors6tensorRNtB5_10TensorViewNtB5_4View8data_len
FNDA:1,_RNvMs1_NtCsbMiFGjRZ20J_11safetensors6tensorNtB5_11SafeTensors5names
FNDA:7,_RNvMs4_NtCsbMiFGjRZ20J_11safetensors6tensorNtB5_8Metadata8validate
FNDA:5,_RNCNvMs4_NtCsbMiFGjRZ20J_11safetensors6tensorNtB7_8Metadata8validate0B9_
FNDA:7,_RINvXNvNtCsbMiFGjRZ20J_11safetensors6tensors_1__NtB5_12HashMetadataNtNtCs9b6qOt1j1yB_5serde2de11Deserialize11deserializeQINtNtCscGBJi1LTqr2_10serde_json2de12DeserializerNtNtB20_4read7StrReadEEB7_
FNDA:256,_RINvXNvNtCsbMiFGjRZ20J_11safetensors6tensors0_1__NtB5_10TensorInfoNtNtCs9b6qOt1j1yB_5serde2de11Deserialize11deserializeINtNtNtNtB16_9___private2de7content22ContentRefDeserializerNtNtCscGBJi1LTqr2_10serde_json5error5ErrorEEB7_
FNDA:256,_RINvXs_NvXNvNtCsbMiFGjRZ20J_11safetensors6tensors_1__NtBa_12HashMetadataNtNtCs9b6qOt1j1yB_5serde2de11Deserialize11deserializeNtB5_7___FieldB18_11deserializeINtNtCscGBJi1LTqr2_10serde_json2de6MapKeyNtNtB2z_4read7StrReadEEBc_
FNDA:7,_RINvXs0_NvXNvNtCsbMiFGjRZ20J_11safetensors6tensors_1__NtBb_12HashMetadataNtNtCs9b6qOt1j1yB_5serde2de11Deserialize11deserializeNtB6_9___VisitorNtB1b_7Visitor9visit_mapINtNtCscGBJi1LTqr2_10serde_json2de9MapAccessNtNtB2J_4read7StrReadEEBd_
FNDA:1,_RNvNtNtCsbMiFGjRZ20J_11safetensors6tensor5testss_16test_json_attack
FNDA:2,_RNvNtNtCsbMiFGjRZ20J_11safetensors6tensor5tests9gpt2_like
FNDA:2,_RNCNvNtNtCsbMiFGjRZ20J_11safetensors6tensor5testss_12test_slicings0_0B7_
FNDA:1,_RNvNtNtCsbMiFGjRZ20J_11safetensors6tensor5testss_18test_serialization
FNDA:1,_RNCNvNtNtCsbMiFGjRZ20J_11safetensors6tensor5testss_12test_slicings_0B7_
FNDA:1,_RNvXsh_NtCsbMiFGjRZ20J_11safetensors6tensorNtB5_5DtypeNtNtCsjNFi0zNHray_4core3cmp9PartialEq2eq
FNDA:1,_RNvNtNtCsbMiFGjRZ20J_11safetensors6tensor5testss_14test_gpt2_tiny
FNDA:1,_RNvNtNtCsbMiFGjRZ20J_11safetensors6tensor5testss_21test_header_too_large
FNDA:1,_RNvNtNtCsbMiFGjRZ20J_11safetensors6tensor5testss_12test_slicing
FNDA:1,_RNvNtNtCsbMiFGjRZ20J_11safetensors6tensor5testss_20test_deserialization
FNDA:1,_RNvNtNtCsbMiFGjRZ20J_11safetensors6tensor5testss_36test_serialization_forced_alignement
FNDA:1,_RNvNtNtCsbMiFGjRZ20J_11safetensors6tensor5testss_9test_gpt2
FNDA:1634,_RNCINvNtCsbMiFGjRZ20J_11safetensors6tensor7prepareRNtNtCsbOmesTKH6XS_5alloc6string6StringRNtB4_10TensorViewRINtNtNtNtCs4BkLiNc2WPT_3std11collections4hash3map7HashMapBN_B1q_EE0B6_
FNDA:1582,_RNCINvXs2_NtCsbMiFGjRZ20J_11safetensors6tensorNtB8_8MetadataNtNtCs9b6qOt1j1yB_5serde2de11Deserialize11deserializeQINtNtCscGBJi1LTqr2_10serde_json2de12DeserializerNtNtB1T_4read7StrReadEE0Ba_
FNDA:1634,_RNvXsk_NtCsbMiFGjRZ20J_11safetensors6tensorNtB5_5DtypeNtNtCsjNFi0zNHray_4core3cmp3Ord3cmp
FNDA:0,_RINvXs0_NvXNvNtCsbMiFGjRZ20J_11safetensors6tensors0_1__NtBb_10TensorInfoNtNtCs9b6qOt1j1yB_5serde2de11Deserialize11deserializeNtB6_9___VisitorNtB1a_7Visitor9visit_seqQINtNtB1a_5value15SeqDeserializerINtNtNtNtCsjNFi0zNHray_4core4iter8adapters3map3MapINtNtNtB3j_5slice4iter4IterNtNtNtNtB1c_9___private2de7content7ContentENvMsq_B4r_INtB4r_22ContentRefDeserializerNtNtCscGBJi1LTqr2_10serde_json5error5ErrorE3newEB5L_EEBd_
FNDA:256,_RINvXs0_NvXNvNtCsbMiFGjRZ20J_11safetensors6tensors0_1__NtBb_10TensorInfoNtNtCs9b6qOt1j1yB_5serde2de11Deserialize11deserializeNtB6_9___VisitorNtB1a_7Visitor9visit_mapQINtNtB1a_5value15MapDeserializerINtNtNtNtCsjNFi0zNHray_4core4iter8adapters3map3MapINtNtNtB3j_5slice4iter4IterTNtNtNtNtB1c_9___private2de7content7ContentB4q_EENCINvB4s_21visit_content_map_refB1Z_NtNtCscGBJi1LTqr2_10serde_json5error5ErrorE0EB5M_EEBd_
FNDA:256,_RINvXs_NvXNvNtCsbMiFGjRZ20J_11safetensors6tensors2_1__NtBa_5DtypeNtNtCs9b6qOt1j1yB_5serde2de11Deserialize11deserializeNtB5_7___FieldB11_11deserializeINtNtNtNtB15_9___private2de7content22ContentRefDeserializerNtNtCscGBJi1LTqr2_10serde_json5error5ErrorEEBc_
FNF:75
FNH:57
DA:14,0
DA:39,0
DA:40,0
DA:41,0
DA:45,0
DA:46,0
DA:47,0
DA:150,5
DA:151,5
DA:152,5
DA:153,5
DA:154,5
DA:155,5
DA:156,5
DA:157,5
DA:158,1634
DA:159,1634
DA:160,1634
DA:161,5
DA:162,5
DA:163,5
DA:164,5
DA:165,5
DA:166,250
DA:167,245
DA:168,245
DA:169,245
DA:170,245
DA:171,245
DA:172,245
DA:173,245
DA:174,245
DA:175,245
DA:176,245
DA:178,5
DA:179,5
DA:180,5
DA:181,5
DA:182,5
DA:183,5
DA:184,5
DA:185,5
DA:186,5
DA:187,5
DA:188,5
DA:189,5
DA:190,5
DA:191,5
DA:192,5
DA:193,5
DA:194,5
DA:197,5
DA:198,5
DA:199,5
DA:200,5
DA:201,5
DA:202,5
DA:203,5
DA:204,5
DA:207,5
DA:208,5
DA:209,5
DA:210,5
DA:211,5
DA:212,5
DA:213,5
DA:214,5
DA:215,5
DA:216,5
DA:217,250
DA:218,245
DA:219,245
DA:220,5
DA:221,5
DA:226,0
DA:227,0
DA:228,0
DA:229,0
DA:230,0
DA:231,0
DA:232,0
DA:233,0
DA:234,0
DA:237,0
DA:238,0
DA:239,0
DA:240,0
DA:241,0
DA:242,0
DA:243,0
DA:244,0
DA:245,0
DA:247,0
DA:248,0
DA:249,0
DA:261,8
DA:262,8
DA:263,8
DA:264,8
DA:265,8
DA:266,8
DA:267,8
DA:268,8
DA:269,0
DA:270,8
DA:271,8
DA:272,8
DA:273,8
DA:274,8
DA:275,8
DA:276,8
DA:277,8
DA:278,1
DA:279,7
DA:281,7
DA:282,7
DA:283,7
DA:284,7
DA:285,0
DA:286,7
DA:287,7
DA:288,7
DA:289,7
DA:290,7
DA:291,7
DA:292,6
DA:293,8
DA:313,8
DA:314,8
DA:315,8
DA:316,8
DA:317,8
DA:318,6
DA:319,6
DA:320,8
DA:325,0
DA:326,0
DA:327,0
DA:328,0
DA:329,0
DA:330,0
DA:331,0
DA:332,0
DA:333,0
DA:334,0
DA:335,0
DA:336,0
DA:337,0
DA:343,3
DA:344,3
DA:345,3
DA:346,3
DA:347,3
DA:348,3
DA:349,3
DA:351,0
DA:354,0
DA:356,3
DA:361,1
DA:362,1
DA:363,1
DA:368,0
DA:376,263
DA:386,7
DA:387,7
DA:388,7
DA:389,7
DA:390,7
DA:391,7
DA:392,7
DA:393,7
DA:394,7
DA:395,7
DA:396,7
DA:397,1582
DA:398,7
DA:399,7
DA:403,5
DA:404,5
DA:405,5
DA:406,5
DA:407,5
DA:408,250
DA:409,245
DA:410,245
DA:412,5
DA:413,5
DA:414,5
DA:415,0
DA:416,5
DA:417,250
DA:418,245
DA:420,5
DA:421,5
DA:425,12
DA:426,12
DA:427,12
DA:428,12
DA:429,12
DA:430,12
DA:431,12
DA:432,12
DA:433,12
DA:434,501
DA:435,501
DA:436,501
DA:437,501
DA:438,12
DA:439,12
DA:440,12
DA:441,12
DA:442,12
DA:443,12
DA:444,12
DA:445,12
DA:446,12
DA:447,12
DA:449,7
DA:450,7
DA:451,248
DA:452,248
DA:453,248
DA:454,1
DA:455,1
DA:456,1
DA:457,5
DA:458,1
DA:459,1
DA:460,1
DA:461,247
DA:462,247
DA:463,247
DA:464,247
DA:465,247
DA:466,0
DA:467,247
DA:470,6
DA:471,7
DA:474,0
DA:475,0
DA:476,0
DA:477,0
DA:478,0
DA:479,0
DA:482,0
DA:483,0
DA:484,0
DA:490,0
DA:498,3513
DA:499,3513
DA:500,3513
DA:502,245
DA:503,245
DA:504,245
DA:506,245
DA:507,245
DA:508,245
DA:510,245
DA:511,245
DA:512,245
DA:517,248
DA:518,248
DA:519,248
DA:520,248
DA:521,248
DA:522,248
DA:523,248
DA:524,248
DA:525,0
DA:527,248
DA:529,248
DA:531,14
DA:532,14
DA:533,14
DA:536,41
DA:537,41
DA:538,41
DA:541,21
DA:542,21
DA:543,21
DA:546,2
DA:547,2
DA:548,2
DA:549,2
DA:550,2
DA:551,2
DA:557,1792
DA:568,1634
DA:601,752
DA:602,752
DA:603,0
DA:604,0
DA:605,0
DA:606,0
DA:607,0
DA:608,1
DA:609,0
DA:610,0
DA:611,0
DA:612,0
DA:613,0
DA:614,751
DA:615,0
DA:617,752
DA:625,1
DA:626,1
DA:627,1
DA:628,1
DA:629,6
DA:630,1
DA:631,1
DA:632,1
DA:633,1
DA:634,1
DA:635,1
DA:636,1
DA:637,1
DA:638,1
DA:639,1
DA:640,1
DA:641,1
DA:642,1
DA:643,1
DA:644,1
DA:645,1
DA:646,1
DA:647,1
DA:648,1
DA:650,1
DA:651,1
DA:652,1
DA:653,1
DA:654,6
DA:655,1
DA:656,1
DA:657,1
DA:658,1
DA:659,1
DA:660,1
DA:661,1
DA:662,1
DA:663,1
DA:664,1
DA:665,1
DA:666,1
DA:667,1
DA:668,1
DA:669,1
DA:670,1
DA:671,1
DA:672,1
DA:673,1
DA:674,1
DA:675,1
DA:676,1
DA:678,1
DA:679,1
DA:680,1
DA:681,1
DA:682,6
DA:683,1
DA:684,1
DA:685,1
DA:686,1
DA:687,1
DA:688,1
DA:689,1
DA:690,1
DA:691,1
DA:692,1
DA:693,1
DA:694,1
DA:695,1
DA:696,1
DA:697,1
DA:698,1
DA:699,1
DA:700,1
DA:701,1
DA:702,1
DA:703,1
DA:704,1
DA:705,1
DA:706,1
DA:707,3
DA:708,1
DA:709,1
DA:710,1
DA:711,1
DA:712,1
DA:713,1
DA:714,1
DA:715,2
DA:716,1
DA:717,1
DA:718,1
DA:719,1
DA:720,1
DA:721,1
DA:722,2
DA:723,1
DA:724,1
DA:725,1
DA:727,1
DA:728,1
DA:729,1
DA:730,1
DA:732,1
DA:733,1
DA:734,1
DA:735,1
DA:737,2
DA:738,2
DA:739,2
DA:740,2
DA:741,18
DA:742,18
DA:743,18
DA:744,18
DA:745,18
DA:746,18
DA:747,18
DA:748,18
DA:749,18
DA:750,18
DA:751,18
DA:752,18
DA:753,18
DA:754,18
DA:755,18
DA:756,2
DA:757,2
DA:758,2
DA:759,2
DA:760,2
DA:761,2
DA:762,242
DA:763,2
DA:764,2
DA:765,2
DA:766,2
DA:767,2
DA:768,244
DA:769,242
DA:770,242
DA:771,242
DA:772,242
DA:773,242
DA:774,242
DA:776,2
DA:777,2
DA:778,2
DA:779,2
DA:780,2
DA:781,2
DA:782,2
DA:783,2
DA:784,2
DA:785,2
DA:787,1
DA:788,1
DA:789,1
DA:790,1
DA:791,1
DA:792,1
DA:793,1
DA:794,1
DA:795,1
DA:796,1
DA:798,1
DA:799,1
DA:801,1
DA:802,1
DA:803,1
DA:804,1
DA:805,1
DA:806,1
DA:807,11
DA:808,10
DA:809,10
DA:810,10
DA:811,10
DA:812,10
DA:813,10
DA:814,10
DA:815,10
DA:816,10
DA:818,1
DA:819,1
DA:820,1
DA:821,1
DA:822,1
DA:823,1
DA:824,1
DA:825,1
DA:826,1
DA:827,1
DA:828,1
DA:829,1
DA:830,1
DA:831,1
DA:832,1
DA:833,1
DA:834,1
DA:835,1
DA:836,1
DA:837,1
DA:838,1
DA:839,0
DA:840,0
DA:842,1
DA:844,1
DA:845,1
DA:846,1
DA:847,1
DA:848,1
DA:849,1
DA:850,1
DA:851,1
DA:852,0
DA:854,1
BRF:0
BRH:0
LF:549
LH:467
end_of_record